; ModuleID = '19/254.c'
source_filename = "19/254.c"
target datalayout = "e-m:e-p270:32:32-p271:32:32-p272:64:64-i64:64-f80:128-n8:16:32:64-S128"
target triple = "x86_64-pc-linux-gnu"

@.str = private unnamed_addr constant [2 x i8] c" \00", align 1

; Function Attrs: noinline nounwind uwtable
define dso_local i32 @main() #0 {
  %1 = alloca i32, align 4
  %2 = alloca [102 x i8], align 16
  %3 = alloca [101 x i8], align 16
  %4 = alloca [101 x i8], align 16
  %5 = alloca [101 x i8], align 16
  %6 = alloca [101 x i8], align 16
  %7 = alloca i32, align 4
  %8 = alloca i32, align 4
  %9 = alloca i32, align 4
  store i32 0, i32* %1, align 4
  %10 = bitcast [101 x i8]* %5 to i8*
  call void @llvm.memset.p0i8.i64(i8* align 16 %10, i8 0, i64 101, i1 false)
  %11 = bitcast [101 x i8]* %6 to i8*
  call void @llvm.memset.p0i8.i64(i8* align 16 %11, i8 0, i64 101, i1 false)
  store i32 0, i32* %8, align 4
  %12 = getelementptr inbounds [102 x i8], [102 x i8]* %2, i64 0, i64 0
  %13 = call i32 (i8*, ...) bitcast (i32 (...)* @gets to i32 (i8*, ...)*)(i8* %12)
  %14 = getelementptr inbounds [101 x i8], [101 x i8]* %3, i64 0, i64 0
  %15 = call i32 (i8*, ...) bitcast (i32 (...)* @gets to i32 (i8*, ...)*)(i8* %14)
  %16 = getelementptr inbounds [101 x i8], [101 x i8]* %4, i64 0, i64 0
  %17 = call i32 (i8*, ...) bitcast (i32 (...)* @gets to i32 (i8*, ...)*)(i8* %16)
  store i32 0, i32* %7, align 4
  br label %18

18:                                               ; preds = %106, %0
  %19 = load i32, i32* %7, align 4
  %20 = sext i32 %19 to i64
  %21 = getelementptr inbounds [102 x i8], [102 x i8]* %2, i64 0, i64 %20
  %22 = load i8, i8* %21, align 1
  %23 = sext i8 %22 to i32
  %24 = icmp ne i32 %23, 0
  br i1 %24, label %25, label %109

25:                                               ; preds = %18
  %26 = load i32, i32* %7, align 4
  %27 = sext i32 %26 to i64
  %28 = getelementptr inbounds [102 x i8], [102 x i8]* %2, i64 0, i64 %27
  %29 = load i8, i8* %28, align 1
  %30 = sext i8 %29 to i32
  %31 = icmp ne i32 %30, 32
  br i1 %31, label %32, label %42

32:                                               ; preds = %25
  %33 = load i32, i32* %7, align 4
  %34 = sext i32 %33 to i64
  %35 = getelementptr inbounds [102 x i8], [102 x i8]* %2, i64 0, i64 %34
  %36 = load i8, i8* %35, align 1
  %37 = load i32, i32* %8, align 4
  %38 = sext i32 %37 to i64
  %39 = getelementptr inbounds [101 x i8], [101 x i8]* %5, i64 0, i64 %38
  store i8 %36, i8* %39, align 1
  %40 = load i32, i32* %8, align 4
  %41 = add nsw i32 %40, 1
  store i32 %41, i32* %8, align 4
  br label %42

42:                                               ; preds = %32, %25
  %43 = load i32, i32* %7, align 4
  %44 = sext i32 %43 to i64
  %45 = getelementptr inbounds [102 x i8], [102 x i8]* %2, i64 0, i64 %44
  %46 = load i8, i8* %45, align 1
  %47 = sext i8 %46 to i32
  %48 = icmp eq i32 %47, 32
  br i1 %48, label %57, label %49

49:                                               ; preds = %42
  %50 = load i32, i32* %7, align 4
  %51 = add nsw i32 %50, 1
  %52 = sext i32 %51 to i64
  %53 = getelementptr inbounds [102 x i8], [102 x i8]* %2, i64 0, i64 %52
  %54 = load i8, i8* %53, align 1
  %55 = sext i8 %54 to i32
  %56 = icmp eq i32 %55, 0
  br i1 %56, label %57, label %105

57:                                               ; preds = %49, %42
  %58 = getelementptr inbounds [101 x i8], [101 x i8]* %5, i64 0, i64 0
  %59 = getelementptr inbounds [101 x i8], [101 x i8]* %3, i64 0, i64 0
  %60 = call i32 @strcmp(i8* %58, i8* %59) #5
  %61 = icmp eq i32 %60, 0
  br i1 %61, label %62, label %83

62:                                               ; preds = %57
  %63 = getelementptr inbounds [101 x i8], [101 x i8]* %6, i64 0, i64 0
  %64 = getelementptr inbounds [101 x i8], [101 x i8]* %4, i64 0, i64 0
  %65 = call i8* @strcat(i8* %63, i8* %64) #6
  %66 = getelementptr inbounds [101 x i8], [101 x i8]* %6, i64 0, i64 0
  %67 = call i8* @strcat(i8* %66, i8* getelementptr inbounds ([2 x i8], [2 x i8]* @.str, i64 0, i64 0)) #6
  store i32 0, i32* %8, align 4
  store i32 0, i32* %9, align 4
  br label %68

68:                                               ; preds = %79, %62
  %69 = load i32, i32* %9, align 4
  %70 = sext i32 %69 to i64
  %71 = getelementptr inbounds [101 x i8], [101 x i8]* %5, i64 0, i64 %70
  %72 = load i8, i8* %71, align 1
  %73 = sext i8 %72 to i32
  %74 = icmp ne i32 %73, 0
  br i1 %74, label %75, label %82

75:                                               ; preds = %68
  %76 = load i32, i32* %9, align 4
  %77 = sext i32 %76 to i64
  %78 = getelementptr inbounds [101 x i8], [101 x i8]* %5, i64 0, i64 %77
  store i8 0, i8* %78, align 1
  br label %79

79:                                               ; preds = %75
  %80 = load i32, i32* %9, align 4
  %81 = add nsw i32 %80, 1
  store i32 %81, i32* %9, align 4
  br label %68

82:                                               ; preds = %68
  br label %104

83:                                               ; preds = %57
  %84 = getelementptr inbounds [101 x i8], [101 x i8]* %6, i64 0, i64 0
  %85 = getelementptr inbounds [101 x i8], [101 x i8]* %5, i64 0, i64 0
  %86 = call i8* @strcat(i8* %84, i8* %85) #6
  %87 = getelementptr inbounds [101 x i8], [101 x i8]* %6, i64 0, i64 0
  %88 = call i8* @strcat(i8* %87, i8* getelementptr inbounds ([2 x i8], [2 x i8]* @.str, i64 0, i64 0)) #6
  store i32 0, i32* %8, align 4
  store i32 0, i32* %9, align 4
  br label %89

89:                                               ; preds = %100, %83
  %90 = load i32, i32* %9, align 4
  %91 = sext i32 %90 to i64
  %92 = getelementptr inbounds [101 x i8], [101 x i8]* %5, i64 0, i64 %91
  %93 = load i8, i8* %92, align 1
  %94 = sext i8 %93 to i32
  %95 = icmp ne i32 %94, 0
  br i1 %95, label %96, label %103

96:                                               ; preds = %89
  %97 = load i32, i32* %9, align 4
  %98 = sext i32 %97 to i64
  %99 = getelementptr inbounds [101 x i8], [101 x i8]* %5, i64 0, i64 %98
  store i8 0, i8* %99, align 1
  br label %100

100:                                              ; preds = %96
  %101 = load i32, i32* %9, align 4
  %102 = add nsw i32 %101, 1
  store i32 %102, i32* %9, align 4
  br label %89

103:                                              ; preds = %89
  br label %104

104:                                              ; preds = %103, %82
  br label %105

105:                                              ; preds = %104, %49
  br label %106

106:                                              ; preds = %105
  %107 = load i32, i32* %7, align 4
  %108 = add nsw i32 %107, 1
  store i32 %108, i32* %7, align 4
  br label %18

109:                                              ; preds = %18
  store i32 0, i32* %7, align 4
  br label %110

110:                                              ; preds = %137, %109
  %111 = load i32, i32* %7, align 4
  %112 = sext i32 %111 to i64
  %113 = getelementptr inbounds [101 x i8], [101 x i8]* %6, i64 0, i64 %112
  %114 = load i8, i8* %113, align 1
  %115 = sext i8 %114 to i32
  %116 = icmp ne i32 %115, 0
  br i1 %116, label %117, label %140

117:                                              ; preds = %110
  %118 = load i32, i32* %7, align 4
  %119 = sext i32 %118 to i64
  %120 = getelementptr inbounds [101 x i8], [101 x i8]* %6, i64 0, i64 %119
  %121 = load i8, i8* %120, align 1
  %122 = sext i8 %121 to i32
  %123 = icmp eq i32 %122, 32
  br i1 %123, label %124, label %136

124:                                              ; preds = %117
  %125 = load i32, i32* %7, align 4
  %126 = add nsw i32 %125, 1
  %127 = sext i32 %126 to i64
  %128 = getelementptr inbounds [101 x i8], [101 x i8]* %6, i64 0, i64 %127
  %129 = load i8, i8* %128, align 1
  %130 = sext i8 %129 to i32
  %131 = icmp eq i32 %130, 0
  br i1 %131, label %132, label %136

132:                                              ; preds = %124
  %133 = load i32, i32* %7, align 4
  %134 = sext i32 %133 to i64
  %135 = getelementptr inbounds [101 x i8], [101 x i8]* %6, i64 0, i64 %134
  store i8 0, i8* %135, align 1
  br label %136

136:                                              ; preds = %132, %124, %117
  br label %137

137:                                              ; preds = %136
  %138 = load i32, i32* %7, align 4
  %139 = add nsw i32 %138, 1
  store i32 %139, i32* %7, align 4
  br label %110

140:                                              ; preds = %110
  %141 = getelementptr inbounds [101 x i8], [101 x i8]* %6, i64 0, i64 0
  %142 = call i32 @puts(i8* %141)
  ret i32 0
}

; Function Attrs: argmemonly nounwind willreturn
declare void @llvm.memset.p0i8.i64(i8* nocapture writeonly, i8, i64, i1 immarg) #1

declare dso_local i32 @gets(...) #2

; Function Attrs: nounwind readonly
declare dso_local i32 @strcmp(i8*, i8*) #3

; Function Attrs: nounwind
declare dso_local i8* @strcat(i8*, i8*) #4

declare dso_local i32 @puts(i8*) #2


!llvm.module.flags = !{!0}
!llvm.ident = !{!1}

!0 = !{i32 1, !"wchar_size", i32 4}
!1 = !{!"clang version 10.0.0-4ubuntu1 "}
